target datalayout = "e-m:e-p270:32:32-p271:32:32-p272:64:64-i64:64-i128:128-f80:128-n8:16:32:64-S128"
target triple = "x86_64-pc-linux-gnu"

%"class.icu_77::UnicodeString" = type { %"class.icu_77::Replaceable", %"union.icu_77::UnicodeString::StackBufferOrFields" }
%"class.icu_77::Replaceable" = type { %"class.icu_77::UObject" }
%"class.icu_77::UObject" = type { ptr }
%"union.icu_77::UnicodeString::StackBufferOrFields" = type { %struct.anon.0, [32 x i8] }
%struct.anon.0 = type { i16, i32, i32, ptr }
%"class.icu_77::SimpleDateFormat" = type { %"class.icu_77::DateFormat", %"class.icu_77::UnicodeString", %"class.icu_77::UnicodeString", %"class.icu_77::UnicodeString", %"class.icu_77::Locale", ptr, ptr, double, i8, i8, i8, i32, ptr, ptr, i8, ptr }
%"class.icu_77::DateFormat" = type { %"class.icu_77::Format", ptr, ptr, %"class.icu_77::EnumSet", i32 }
%"class.icu_77::Format" = type { %"class.icu_77::UObject", ptr, ptr }
%"class.icu_77::EnumSet" = type { i32 }
%"class.icu_77::Locale" = type <{ %"class.icu_77::UObject", [12 x i8], [6 x i8], [4 x i8], [2 x i8], i32, [4 x i8], ptr, [157 x i8], [3 x i8], ptr, i8, [7 x i8] }>
%struct.anon = type { i16, [27 x i16] }

@_ZTVN6icu_777UObjectE = available_externally unnamed_addr constant { [5 x ptr] } { [5 x ptr] [ptr null, ptr @_ZTIN6icu_777UObjectE, ptr @_ZN6icu_777UObjectD1Ev, ptr @_ZN6icu_777UObjectD0Ev, ptr @_ZNK6icu_777UObject17getDynamicClassIDEv] }, align 8

; Function Attrs: inlinehint mustprogress nounwind uwtable
define linkonce_odr void @_ZN6icu_777UObjectC2Ev(ptr noundef nonnull align 8 dereferenceable(8) %0) unnamed_addr #2 comdat align 2 {
  %2 = alloca ptr, align 8
  store ptr %0, ptr %2, align 8, !tbaa !339
  %3 = load ptr, ptr %2, align 8
  store ptr getelementptr inbounds inrange(-16, 24) ({ [5 x ptr] }, ptr @_ZTVN6icu_777UObjectE, i32 0, i32 0, i32 2), ptr %3, align 8, !tbaa !63
  ret void
}

; Function Attrs: inlinehint mustprogress nounwind uwtable
define linkonce_odr void @_ZN6icu_7711ReplaceableC2Ev(ptr noundef nonnull align 8 dereferenceable(8) %0) unnamed_addr #2 comdat align 2 {
  %2 = alloca ptr, align 8
  store ptr %0, ptr %2, align 8, !tbaa !337
  %3 = load ptr, ptr %2, align 8
  call void @_ZN6icu_777UObjectC2Ev(ptr noundef nonnull align 8 dereferenceable(8) %3) #12
  store ptr getelementptr inbounds inrange(-16, 88) ({ [13 x ptr] }, ptr @_ZTVN6icu_7711ReplaceableE, i32 0, i32 0, i32 2), ptr %3, align 8, !tbaa !63
  ret void
}

; Function Attrs: mustprogress uwtable
define void @_ZN6icu_7716SimpleDateFormat24initializeDefaultCenturyEv(ptr noundef nonnull align 8 dereferenceable(528) %0) #1 align 2 {
  %2 = alloca ptr, align 8
  store ptr %0, ptr %2, align 8, !tbaa !23
  %3 = load ptr, ptr %2, align 8
  %4 = getelementptr inbounds nuw %"class.icu_77::DateFormat", ptr %3, i32 0, i32 1
  %5 = load ptr, ptr %4, align 8, !tbaa !79
  %6 = icmp ne ptr %5, null
  br i1 %6, label %7, label %37

7:                                                ; preds = %1
  %8 = getelementptr inbounds nuw %"class.icu_77::DateFormat", ptr %3, i32 0, i32 1
  %9 = load ptr, ptr %8, align 8, !tbaa !79
  %10 = load ptr, ptr %9, align 8, !tbaa !63
  %11 = getelementptr inbounds ptr, ptr %10, i64 51
  %12 = load ptr, ptr %11, align 8
  %13 = call noundef signext i8 %12(ptr noundef nonnull align 8 dereferenceable(192) %9)
  %14 = getelementptr inbounds nuw %"class.icu_77::SimpleDateFormat", ptr %3, i32 0, i32 14
  store i8 %13, ptr %14, align 8, !tbaa !86
  %15 = getelementptr inbounds nuw %"class.icu_77::SimpleDateFormat", ptr %3, i32 0, i32 14
  %16 = load i8, ptr %15, align 8, !tbaa !86
  %17 = icmp ne i8 %16, 0
  br i1 %17, label %18, label %33

18:                                               ; preds = %7
  %19 = getelementptr inbounds nuw %"class.icu_77::DateFormat", ptr %3, i32 0, i32 1
  %20 = load ptr, ptr %19, align 8, !tbaa !79
  %21 = load ptr, ptr %20, align 8, !tbaa !63
  %22 = getelementptr inbounds ptr, ptr %21, i64 52
  %23 = load ptr, ptr %22, align 8
  %24 = call noundef double %23(ptr noundef nonnull align 8 dereferenceable(192) %20)
  %25 = getelementptr inbounds nuw %"class.icu_77::SimpleDateFormat", ptr %3, i32 0, i32 7
  store double %24, ptr %25, align 8, !tbaa !87
  %26 = getelementptr inbounds nuw %"class.icu_77::DateFormat", ptr %3, i32 0, i32 1
  %27 = load ptr, ptr %26, align 8, !tbaa !79
  %28 = load ptr, ptr %27, align 8, !tbaa !63
  %29 = getelementptr inbounds ptr, ptr %28, i64 53
  %30 = load ptr, ptr %29, align 8
  %31 = call noundef i32 %30(ptr noundef nonnull align 8 dereferenceable(192) %27)
  %32 = getelementptr inbounds nuw %"class.icu_77::SimpleDateFormat", ptr %3, i32 0, i32 11
  store i32 %31, ptr %32, align 4, !tbaa !88
  br label %36

33:                                               ; preds = %7
  %34 = getelementptr inbounds nuw %"class.icu_77::SimpleDateFormat", ptr %3, i32 0, i32 7
  store double 0x10000000000000, ptr %34, align 8, !tbaa !87
  %35 = getelementptr inbounds nuw %"class.icu_77::SimpleDateFormat", ptr %3, i32 0, i32 11
  store i32 -1, ptr %35, align 4, !tbaa !88
  br label %36

36:                                               ; preds = %33, %18
  br label %37

37:                                               ; preds = %36, %1
  ret void
}

; Function Attrs: inlinehint mustprogress nounwind uwtable
define internal noundef signext i8 @_ZL9U_SUCCESS10UErrorCode(i32 noundef %0) #2 {
  %2 = alloca i32, align 4
  store i32 %0, ptr %2, align 4, !tbaa !15
  %3 = load i32, ptr %2, align 4, !tbaa !15
  %4 = icmp sle i32 %3, 0
  %5 = zext i1 %4 to i8
  ret i8 %5
}

; Function Attrs: mustprogress uwtable
define void @_ZN6icu_7716SimpleDateFormat27initializeBooleanAttributesEv(ptr noundef nonnull align 8 dereferenceable(528) %0) #1 align 2 {
  %2 = alloca ptr, align 8
  %3 = alloca i32, align 4
  store ptr %0, ptr %2, align 8, !tbaa !23
  %4 = load ptr, ptr %2, align 8
  call void @llvm.lifetime.start.p0(i64 4, ptr %3) #12
  store i32 0, ptr %3, align 4, !tbaa !15
  %5 = load ptr, ptr %4, align 8, !tbaa !63
  %6 = getelementptr inbounds ptr, ptr %5, i64 27
  %7 = load ptr, ptr %6, align 8
  %8 = call noundef nonnull align 8 dereferenceable(48) ptr %7(ptr noundef nonnull align 8 dereferenceable(48) %4, i32 noundef 0, i8 noundef signext 1, ptr noundef nonnull align 4 dereferenceable(4) %3)
  %9 = load ptr, ptr %4, align 8, !tbaa !63
  %10 = getelementptr inbounds ptr, ptr %9, i64 27
  %11 = load ptr, ptr %10, align 8
  %12 = call noundef nonnull align 8 dereferenceable(48) ptr %11(ptr noundef nonnull align 8 dereferenceable(48) %4, i32 noundef 1, i8 noundef signext 1, ptr noundef nonnull align 4 dereferenceable(4) %3)
  %13 = load ptr, ptr %4, align 8, !tbaa !63
  %14 = getelementptr inbounds ptr, ptr %13, i64 27
  %15 = load ptr, ptr %14, align 8
  %16 = call noundef nonnull align 8 dereferenceable(48) ptr %15(ptr noundef nonnull align 8 dereferenceable(48) %4, i32 noundef 2, i8 noundef signext 1, ptr noundef nonnull align 4 dereferenceable(4) %3)
  %17 = load ptr, ptr %4, align 8, !tbaa !63
  %18 = getelementptr inbounds ptr, ptr %17, i64 27
  %19 = load ptr, ptr %18, align 8
  %20 = call noundef nonnull align 8 dereferenceable(48) ptr %19(ptr noundef nonnull align 8 dereferenceable(48) %4, i32 noundef 3, i8 noundef signext 1, ptr noundef nonnull align 4 dereferenceable(4) %3)
  call void @llvm.lifetime.end.p0(i64 4, ptr %3) #12
  ret void
}

; Function Attrs: inlinehint mustprogress uwtable
define linkonce_odr void @_ZN6icu_7713UnicodeStringC2Ev(ptr noundef nonnull align 8 dereferenceable(64) %0) unnamed_addr #3 comdat align 2 {
  %2 = alloca ptr, align 8
  store ptr %0, ptr %2, align 8, !tbaa !72
  %3 = load ptr, ptr %2, align 8
  call void @_ZN6icu_7711ReplaceableC2Ev(ptr noundef nonnull align 8 dereferenceable(8) %3)
  store ptr getelementptr inbounds inrange(-16, 88) ({ [13 x ptr] }, ptr @_ZTVN6icu_7713UnicodeStringE, i32 0, i32 0, i32 2), ptr %3, align 8, !tbaa !63
  %4 = getelementptr inbounds nuw %"class.icu_77::UnicodeString", ptr %3, i32 0, i32 1
  %5 = getelementptr inbounds nuw %struct.anon, ptr %4, i32 0, i32 0
  store i16 2, ptr %5, align 8, !tbaa !74
  ret void
}

; Function Attrs: mustprogress uwtable
define void @_ZN6icu_7716SimpleDateFormatC2ENS_10DateFormat6EStyleES2_RKNS_6LocaleER10UErrorCode(ptr noundef nonnull align 8 dereferenceable(528) %0, i32 noundef %1, i32 noundef %2, ptr noundef nonnull align 8 dereferenceable(217) %3, ptr noundef nonnull align 4 dereferenceable(4) %4) unnamed_addr #1 align 2 personality ptr @__gxx_personality_v0 {
  %6 = alloca ptr, align 8
  %7 = alloca i32, align 4
  %8 = alloca i32, align 4
  %9 = alloca ptr, align 8
  %10 = alloca ptr, align 8
  %11 = alloca ptr, align 8
  %12 = alloca i32, align 4
  store ptr %0, ptr %6, align 8, !tbaa !23
  store i32 %1, ptr %7, align 4, !tbaa !75
  store i32 %2, ptr %8, align 4, !tbaa !75
  store ptr %3, ptr %9, align 8, !tbaa !77
  store ptr %4, ptr %10, align 8, !tbaa !22
  %13 = load ptr, ptr %6, align 8
  call void @_ZN6icu_7710DateFormatC2Ev(ptr noundef nonnull align 8 dereferenceable(48) %13)
  store ptr getelementptr inbounds inrange(-16, 320) ({ [42 x ptr] }, ptr @_ZTVN6icu_7716SimpleDateFormatE, i32 0, i32 0, i32 2), ptr %13, align 8, !tbaa !63
  %14 = getelementptr inbounds nuw %"class.icu_77::SimpleDateFormat", ptr %13, i32 0, i32 1
  invoke void @_ZN6icu_7713UnicodeStringC2Ev(ptr noundef nonnull align 8 dereferenceable(64) %14)
          to label %15 unwind label %41

15:                                               ; preds = %5
  %16 = getelementptr inbounds nuw %"class.icu_77::SimpleDateFormat", ptr %13, i32 0, i32 2
  invoke void @_ZN6icu_7713UnicodeStringC2Ev(ptr noundef nonnull align 8 dereferenceable(64) %16)
          to label %17 unwind label %45

17:                                               ; preds = %15
  %18 = getelementptr inbounds nuw %"class.icu_77::SimpleDateFormat", ptr %13, i32 0, i32 3
  invoke void @_ZN6icu_7713UnicodeStringC2Ev(ptr noundef nonnull align 8 dereferenceable(64) %18)
          to label %19 unwind label %49

19:                                               ; preds = %17
  %20 = getelementptr inbounds nuw %"class.icu_77::SimpleDateFormat", ptr %13, i32 0, i32 4
  %21 = load ptr, ptr %9, align 8, !tbaa !77
  invoke void @_ZN6icu_776LocaleC1ERKS0_(ptr noundef nonnull align 8 dereferenceable(217) %20, ptr noundef nonnull align 8 dereferenceable(217) %21)
          to label %22 unwind label %53

22:                                               ; preds = %19
  %23 = getelementptr inbounds nuw %"class.icu_77::SimpleDateFormat", ptr %13, i32 0, i32 5
  store ptr null, ptr %23, align 8, !tbaa !65
  %24 = getelementptr inbounds nuw %"class.icu_77::SimpleDateFormat", ptr %13, i32 0, i32 6
  store ptr null, ptr %24, align 8, !tbaa !66
  %25 = getelementptr inbounds nuw %"class.icu_77::SimpleDateFormat", ptr %13, i32 0, i32 12
  store ptr null, ptr %25, align 8, !tbaa !35
  %26 = getelementptr inbounds nuw %"class.icu_77::SimpleDateFormat", ptr %13, i32 0, i32 13
  store ptr null, ptr %26, align 8, !tbaa !67
  %27 = getelementptr inbounds nuw %"class.icu_77::SimpleDateFormat", ptr %13, i32 0, i32 15
  store ptr null, ptr %27, align 8, !tbaa !68
  invoke void @_ZN6icu_7716SimpleDateFormat27initializeBooleanAttributesEv(ptr noundef nonnull align 8 dereferenceable(528) %13)
          to label %28 unwind label %57

28:                                               ; preds = %22
  %29 = load i32, ptr %7, align 4, !tbaa !75
  %30 = load i32, ptr %8, align 4, !tbaa !75
  %31 = getelementptr inbounds nuw %"class.icu_77::SimpleDateFormat", ptr %13, i32 0, i32 4
  %32 = load ptr, ptr %10, align 8, !tbaa !22
  invoke void @_ZN6icu_7716SimpleDateFormat9constructENS_10DateFormat6EStyleES2_RKNS_6LocaleER10UErrorCode(ptr noundef nonnull align 8 dereferenceable(528) %13, i32 noundef %29, i32 noundef %30, ptr noundef nonnull align 8 dereferenceable(217) %31, ptr noundef nonnull align 4 dereferenceable(4) %32)
          to label %33 unwind label %57

33:                                               ; preds = %28
  %34 = load ptr, ptr %10, align 8, !tbaa !22
  %35 = load i32, ptr %34, align 4, !tbaa !15
  %36 = invoke noundef signext i8 @_ZL9U_SUCCESS10UErrorCode(i32 noundef %35)
          to label %37 unwind label %57

37:                                               ; preds = %33
  %38 = icmp ne i8 %36, 0
  br i1 %38, label %39, label %61

39:                                               ; preds = %37
  invoke void @_ZN6icu_7716SimpleDateFormat24initializeDefaultCenturyEv(ptr noundef nonnull align 8 dereferenceable(528) %13)
          to label %40 unwind label %57

40:                                               ; preds = %39
  br label %61

41:                                               ; preds = %5
  %42 = landingpad { ptr, i32 }
          cleanup
  %43 = extractvalue { ptr, i32 } %42, 0
  store ptr %43, ptr %11, align 8
  %44 = extractvalue { ptr, i32 } %42, 1
  store i32 %44, ptr %12, align 4
  br label %65

45:                                               ; preds = %15
  %46 = landingpad { ptr, i32 }
          cleanup
  %47 = extractvalue { ptr, i32 } %46, 0
  store ptr %47, ptr %11, align 8
  %48 = extractvalue { ptr, i32 } %46, 1
  store i32 %48, ptr %12, align 4
  br label %64

49:                                               ; preds = %17
  %50 = landingpad { ptr, i32 }
          cleanup
  %51 = extractvalue { ptr, i32 } %50, 0
  store ptr %51, ptr %11, align 8
  %52 = extractvalue { ptr, i32 } %50, 1
  store i32 %52, ptr %12, align 4
  br label %63

53:                                               ; preds = %19
  %54 = landingpad { ptr, i32 }
          cleanup
  %55 = extractvalue { ptr, i32 } %54, 0
  store ptr %55, ptr %11, align 8
  %56 = extractvalue { ptr, i32 } %54, 1
  store i32 %56, ptr %12, align 4
  br label %62

57:                                               ; preds = %39, %33, %28, %22
  %58 = landingpad { ptr, i32 }
          cleanup
  %59 = extractvalue { ptr, i32 } %58, 0
  store ptr %59, ptr %11, align 8
  %60 = extractvalue { ptr, i32 } %58, 1
  store i32 %60, ptr %12, align 4
  call void @_ZN6icu_776LocaleD1Ev(ptr noundef nonnull align 8 dereferenceable(217) %20) #12
  br label %62

61:                                               ; preds = %40, %37
  ret void

62:                                               ; preds = %57, %53
  call void @_ZN6icu_7713UnicodeStringD1Ev(ptr noundef nonnull align 8 dereferenceable(64) %18) #12
  br label %63

63:                                               ; preds = %62, %49
  call void @_ZN6icu_7713UnicodeStringD1Ev(ptr noundef nonnull align 8 dereferenceable(64) %16) #12
  br label %64

64:                                               ; preds = %63, %45
  call void @_ZN6icu_7713UnicodeStringD1Ev(ptr noundef nonnull align 8 dereferenceable(64) %14) #12
  br label %65

65:                                               ; preds = %64, %41
  call void @_ZN6icu_7710DateFormatD2Ev(ptr noundef nonnull align 8 dereferenceable(48) %13) #12
  br label %66

66:                                               ; preds = %65
  %67 = load ptr, ptr %11, align 8
  %68 = load i32, ptr %12, align 4
  %69 = insertvalue { ptr, i32 } poison, ptr %67, 0
  %70 = insertvalue { ptr, i32 } %69, i32 %68, 1
  resume { ptr, i32 } %70
}