; Function Attrs: mustprogress uwtable
define void @_ZN6icu_7716SimpleDateFormatC2ENS_10DateFormat6EStyleES2_RKNS_6LocaleER10UErrorCode(ptr noundef nonnull align 8 dereferenceable(528) %0, i32 noundef %1, i32 noundef %2, ptr noundef nonnull align 8 dereferenceable(217) %3, ptr noundef nonnull align 4 dereferenceable(4) %4) unnamed_addr #1 align 2 personality ptr @__gxx_personality_v0 {
  %6 = alloca i32, align 4
  tail call void @_ZN6icu_7710DateFormatC2Ev(ptr noundef nonnull align 8 dereferenceable(48) %0)
  store ptr getelementptr inbounds nuw inrange(-16, 320) (i8, ptr @_ZTVN6icu_7716SimpleDateFormatE, i64 16), ptr %0, align 8, !tbaa !44
  %7 = getelementptr inbounds nuw i8, ptr %0, i64 48
  store ptr getelementptr inbounds nuw inrange(-16, 88) (i8, ptr @_ZTVN6icu_7713UnicodeStringE, i64 16), ptr %7, align 8, !tbaa !44
  %8 = getelementptr inbounds nuw i8, ptr %0, i64 56
  store i16 2, ptr %8, align 8, !tbaa !51
  %9 = getelementptr inbounds nuw i8, ptr %0, i64 112
  store ptr getelementptr inbounds nuw inrange(-16, 88) (i8, ptr @_ZTVN6icu_7713UnicodeStringE, i64 16), ptr %9, align 8, !tbaa !44
  %10 = getelementptr inbounds nuw i8, ptr %0, i64 120
  store i16 2, ptr %10, align 8, !tbaa !51
  %11 = getelementptr inbounds nuw i8, ptr %0, i64 176
  store ptr getelementptr inbounds nuw inrange(-16, 88) (i8, ptr @_ZTVN6icu_7713UnicodeStringE, i64 16), ptr %11, align 8, !tbaa !44
  %12 = getelementptr inbounds nuw i8, ptr %0, i64 184
  store i16 2, ptr %12, align 8, !tbaa !51
  %13 = getelementptr inbounds nuw i8, ptr %0, i64 240
  invoke void @_ZN6icu_776LocaleC1ERKS0_(ptr noundef nonnull align 8 dereferenceable(217) %13, ptr noundef nonnull align 8 dereferenceable(217) %3)
          to label %14 unwind label %62

14:                                               ; preds = %5
  %15 = getelementptr inbounds nuw i8, ptr %0, i64 464
  %16 = getelementptr inbounds nuw i8, ptr %0, i64 496
  %17 = getelementptr inbounds nuw i8, ptr %0, i64 520
  store ptr null, ptr %17, align 8, !tbaa !50
  tail call void @llvm.memset.p0.i64(ptr noundef nonnull align 8 dereferenceable(16) %15, i8 0, i64 16, i1 false)
  tail call void @llvm.memset.p0.i64(ptr noundef nonnull align 8 dereferenceable(16) %16, i8 0, i64 16, i1 false)
  call void @llvm.lifetime.start.p0(i64 4, ptr nonnull %6) #23
  store i32 0, ptr %6, align 4, !tbaa !13
  %18 = load ptr, ptr %0, align 8, !tbaa !44
  %19 = getelementptr inbounds nuw i8, ptr %18, i64 216
  %20 = load ptr, ptr %19, align 8
  %21 = invoke noundef nonnull align 8 dereferenceable(48) ptr %20(ptr noundef nonnull align 8 dereferenceable(528) %0, i32 noundef 0, i8 noundef signext 1, ptr noundef nonnull align 4 dereferenceable(4) %6)
          to label %.noexc unwind label %64

.noexc:                                           ; preds = %14
  %22 = load ptr, ptr %0, align 8, !tbaa !44
  %23 = getelementptr inbounds nuw i8, ptr %22, i64 216
  %24 = load ptr, ptr %23, align 8
  %25 = invoke noundef nonnull align 8 dereferenceable(48) ptr %24(ptr noundef nonnull align 8 dereferenceable(528) %0, i32 noundef 1, i8 noundef signext 1, ptr noundef nonnull align 4 dereferenceable(4) %6)
          to label %.noexc15 unwind label %64

.noexc15:                                         ; preds = %.noexc
  %26 = load ptr, ptr %0, align 8, !tbaa !44
  %27 = getelementptr inbounds nuw i8, ptr %26, i64 216
  %28 = load ptr, ptr %27, align 8
  %29 = invoke noundef nonnull align 8 dereferenceable(48) ptr %28(ptr noundef nonnull align 8 dereferenceable(528) %0, i32 noundef 2, i8 noundef signext 1, ptr noundef nonnull align 4 dereferenceable(4) %6)
          to label %.noexc16 unwind label %64

.noexc16:                                         ; preds = %.noexc15
  %30 = load ptr, ptr %0, align 8, !tbaa !44
  %31 = getelementptr inbounds nuw i8, ptr %30, i64 216
  %32 = load ptr, ptr %31, align 8
  %33 = invoke noundef nonnull align 8 dereferenceable(48) ptr %32(ptr noundef nonnull align 8 dereferenceable(528) %0, i32 noundef 3, i8 noundef signext 1, ptr noundef nonnull align 4 dereferenceable(4) %6)
          to label %34 unwind label %64

34:                                               ; preds = %.noexc16
  call void @llvm.lifetime.end.p0(i64 4, ptr nonnull %6) #23
  invoke void @_ZN6icu_7716SimpleDateFormat9constructENS_10DateFormat6EStyleES2_RKNS_6LocaleER10UErrorCode(ptr noundef nonnull align 8 dereferenceable(528) %0, i32 noundef %1, i32 noundef %2, ptr noundef nonnull align 8 dereferenceable(217) %13, ptr noundef nonnull align 4 dereferenceable(4) %4)
          to label %35 unwind label %64

35:                                               ; preds = %34
  %36 = load i32, ptr %4, align 4, !tbaa !13
  %37 = icmp sgt i32 %36, 0
  br i1 %37, label %_ZN6icu_7716SimpleDateFormat24initializeDefaultCenturyEv.exit, label %38

38:                                               ; preds = %35
  %39 = getelementptr inbounds nuw i8, ptr %0, i64 24
  %40 = load ptr, ptr %39, align 8, !tbaa !52
  %.not.i = icmp eq ptr %40, null
  br i1 %.not.i, label %_ZN6icu_7716SimpleDateFormat24initializeDefaultCenturyEv.exit, label %41

41:                                               ; preds = %38
  %42 = load ptr, ptr %40, align 8, !tbaa !44
  %43 = getelementptr inbounds nuw i8, ptr %42, i64 408
  %44 = load ptr, ptr %43, align 8
  %45 = invoke noundef signext i8 %44(ptr noundef nonnull align 8 dereferenceable(192) %40)
          to label %.noexc18 unwind label %64

.noexc18:                                         ; preds = %41
  %46 = getelementptr inbounds nuw i8, ptr %0, i64 512
  store i8 %45, ptr %46, align 8, !tbaa !53
  %.not1.i = icmp eq i8 %45, 0
  br i1 %.not1.i, label %59, label %47

47:                                               ; preds = %.noexc18
  %48 = load ptr, ptr %39, align 8, !tbaa !52
  %49 = load ptr, ptr %48, align 8, !tbaa !44
  %50 = getelementptr inbounds nuw i8, ptr %49, i64 416
  %51 = load ptr, ptr %50, align 8
  %52 = invoke noundef double %51(ptr noundef nonnull align 8 dereferenceable(192) %48)
          to label %.noexc19 unwind label %64

.noexc19:                                         ; preds = %47
  %53 = getelementptr inbounds nuw i8, ptr %0, i64 480
  store double %52, ptr %53, align 8, !tbaa !54
  %54 = load ptr, ptr %39, align 8, !tbaa !52
  %55 = load ptr, ptr %54, align 8, !tbaa !44
  %56 = getelementptr inbounds nuw i8, ptr %55, i64 424
  %57 = load ptr, ptr %56, align 8
  %58 = invoke noundef i32 %57(ptr noundef nonnull align 8 dereferenceable(192) %54)
          to label %.sink.split.i unwind label %64

59:                                               ; preds = %.noexc18
  %60 = getelementptr inbounds nuw i8, ptr %0, i64 480
  store double 0x10000000000000, ptr %60, align 8, !tbaa !54
  br label %.sink.split.i

.sink.split.i:                                    ; preds = %.noexc19, %59
  %.sink.i = phi i32 [ -1, %59 ], [ %58, %.noexc19 ]
  %61 = getelementptr inbounds nuw i8, ptr %0, i64 492
  store i32 %.sink.i, ptr %61, align 4, !tbaa !55
  br label %_ZN6icu_7716SimpleDateFormat24initializeDefaultCenturyEv.exit

62:                                               ; preds = %5
  %63 = landingpad { ptr, i32 }
          cleanup
  br label %66

64:                                               ; preds = %.noexc19, %47, %41, %.noexc16, %.noexc15, %.noexc, %14, %34
  %65 = landingpad { ptr, i32 }
          cleanup
  call void @_ZN6icu_776LocaleD1Ev(ptr noundef nonnull align 8 dereferenceable(217) %13) #23
  br label %66

_ZN6icu_7716SimpleDateFormat24initializeDefaultCenturyEv.exit: ; preds = %.sink.split.i, %38, %35
  ret void

66:                                               ; preds = %64, %62
  %.pn = phi { ptr, i32 } [ %65, %64 ], [ %63, %62 ]
  call void @_ZN6icu_7713UnicodeStringD1Ev(ptr noundef nonnull align 8 dereferenceable(64) %11) #23
  call void @_ZN6icu_7713UnicodeStringD1Ev(ptr noundef nonnull align 8 dereferenceable(64) %9) #23
  call void @_ZN6icu_7713UnicodeStringD1Ev(ptr noundef nonnull align 8 dereferenceable(64) %7) #23
  call void @_ZN6icu_7710DateFormatD2Ev(ptr noundef nonnull align 8 dereferenceable(48) %0) #23
  resume { ptr, i32 } %.pn
}